target datalayout = "e-m:e-p270:32:32-p271:32:32-p272:64:64-i64:64-i128:128-f80:128-n8:16:32:64-S128"
target triple = "x86_64-unknown-linux-gnu"

%struct.BlockLimits = type { i32, i64, i32, i64, i32, i32, i32, i64, i32, i64, i64, i32, i8, i32, i32, i32, i32, i32, i32, i32 }
%struct.BlockDriverState = type { i32, i8, i8, i8, i8, i8, ptr, ptr, ptr, %struct.anon.1, i8, [4096 x i8], [4096 x i8], [4096 x i8], [16 x i8], ptr, [4096 x i8], %struct.BlockLimits, i32, i32, i32, i32, [32 x i8], %union.anon, %union.anon.2, %union.anon.3, i32, [16 x %struct.anon.4], ptr, %struct.anon.5, ptr, ptr, %struct.anon.6, ptr, ptr, i32, ptr, i64, i64, %struct.QemuMutex, %struct.anon.7, %struct.Stat64, i32, i32, i32, i32, i32, i32, %struct.QemuMutex, %struct.anon.8, %struct.CoQueue, i8, i32, i8, %struct.CoMutex, ptr, ptr }
%struct.anon.1 = type { ptr }
%union.anon = type { %struct.QTailQLink }
%struct.QTailQLink = type { ptr, ptr }
%union.anon.2 = type { %struct.QTailQLink }
%union.anon.3 = type { %struct.QTailQLink }
%struct.anon.4 = type { ptr }
%struct.anon.5 = type { ptr }
%struct.anon.6 = type { ptr }
%struct.anon.7 = type { ptr }
%struct.Stat64 = type { i64 }
%struct.QemuMutex = type { %union.pthread_mutex_t, i8 }
%union.pthread_mutex_t = type { %struct.__pthread_mutex_s }
%struct.__pthread_mutex_s = type { i32, i32, i32, i32, i32, i16, i16, %struct.__pthread_internal_list }
%struct.__pthread_internal_list = type { ptr, ptr }
%struct.anon.8 = type { ptr }
%struct.CoQueue = type { %struct.anon.9 }
%struct.anon.9 = type { ptr, ptr }
%struct.CoMutex = type { i32, ptr, %struct.anon.10, %struct.anon.10, i32, i32, ptr }
%struct.anon.10 = type { ptr }
%struct.BlockDriver = type { ptr, i32, i8, i8, i8, i8, i8, i8, ptr, ptr, ptr, ptr, ptr, ptr, ptr, ptr, ptr, ptr, ptr, ptr, ptr, ptr, ptr, ptr, ptr, ptr, ptr, ptr, ptr, ptr, ptr, ptr, ptr, ptr, ptr, ptr, ptr, ptr, ptr, ptr, ptr, ptr, ptr, ptr, ptr, ptr, ptr, ptr, ptr, ptr, ptr, ptr, ptr, ptr, ptr, ptr, ptr, ptr, ptr, ptr, ptr, %struct.anon.11, ptr, ptr, ptr, ptr, ptr, ptr, ptr, ptr, ptr, ptr, ptr, ptr, ptr, ptr, ptr, ptr, ptr, ptr, ptr, ptr, ptr, ptr, ptr, ptr, ptr, ptr, ptr, ptr, ptr, ptr, ptr, ptr, ptr, ptr, ptr, ptr, ptr, ptr, ptr, ptr, ptr, ptr, ptr, ptr, ptr, ptr, ptr, ptr, ptr }
%struct.anon.11 = type { ptr, ptr }
%struct.CoroutineIOCompletion = type { ptr, i32 }

@.str.4 = private unnamed_addr constant [13 x i8] c"coroutine_fn\00", section "llvm.metadata"
@.str.5 = private unnamed_addr constant [111 x i8] c"/home/dtcxzyw/WorkSpace/Projects/compilers/llvm-opt-benchmark/bench/qemu/qemu/include/block/block_int-common.h\00", section "llvm.metadata"

; Function Attrs: nounwind sspstrong uwtable
define dso_local void @bdrv_wakeup(ptr noundef %bs) #0 {
entry:
  %bs.addr = alloca ptr, align 8
  store ptr %bs, ptr %bs.addr, align 8
  br label %do.body

do.body:                                          ; preds = %entry
  br label %do.end

do.end:                                           ; preds = %do.body
  call void @aio_wait_kick()
  ret void
}

; Function Attrs: nounwind sspstrong uwtable
define dso_local void @bdrv_dec_in_flight(ptr noundef %bs) #0 {
entry:
  %bs.addr = alloca ptr, align 8
  %.atomictmp = alloca i32, align 4
  %atomic-temp = alloca i32, align 4
  store ptr %bs, ptr %bs.addr, align 8
  br label %do.body

do.body:                                          ; preds = %entry
  br label %do.end

do.end:                                           ; preds = %do.body
  %0 = load ptr, ptr %bs.addr, align 8
  %in_flight = getelementptr inbounds %struct.BlockDriverState, ptr %0, i32 0, i32 43
  store i32 1, ptr %.atomictmp, align 4
  %1 = load i32, ptr %.atomictmp, align 4
  %2 = atomicrmw sub ptr %in_flight, i32 %1 seq_cst, align 4
  store i32 %2, ptr %atomic-temp, align 4
  %3 = load ptr, ptr %bs.addr, align 8
  call void @bdrv_wakeup(ptr noundef %3)
  ret void
}

; Function Attrs: nounwind sspstrong uwtable
define dso_local void @bdrv_inc_in_flight(ptr noundef %bs) #0 {
entry:
  %bs.addr = alloca ptr, align 8
  %.atomictmp = alloca i32, align 4
  %atomic-temp = alloca i32, align 4
  store ptr %bs, ptr %bs.addr, align 8
  br label %do.body

do.body:                                          ; preds = %entry
  br label %do.end

do.end:                                           ; preds = %do.body
  %0 = load ptr, ptr %bs.addr, align 8
  %in_flight = getelementptr inbounds %struct.BlockDriverState, ptr %0, i32 0, i32 43
  store i32 1, ptr %.atomictmp, align 4
  %1 = load i32, ptr %.atomictmp, align 4
  %2 = atomicrmw add ptr %in_flight, i32 %1 seq_cst, align 4
  store i32 %2, ptr %atomic-temp, align 4
  ret void
}

; Function Attrs: nounwind sspstrong uwtable
define dso_local i32 @bdrv_co_zone_report(ptr noundef %bs, i64 noundef %offset, ptr noundef %nr_zones, ptr noundef %zones) #0 {
entry:
  %bs.addr = alloca ptr, align 8
  %offset.addr = alloca i64, align 8
  %nr_zones.addr = alloca ptr, align 8
  %zones.addr = alloca ptr, align 8
  %drv = alloca ptr, align 8
  %co = alloca %struct.CoroutineIOCompletion, align 8
  store ptr %bs, ptr %bs.addr, align 8
  store i64 %offset, ptr %offset.addr, align 8
  store ptr %nr_zones, ptr %nr_zones.addr, align 8
  store ptr %zones, ptr %zones.addr, align 8
  %0 = load ptr, ptr %bs.addr, align 8
  %drv1 = getelementptr inbounds %struct.BlockDriverState, ptr %0, i32 0, i32 6
  %1 = load ptr, ptr %drv1, align 8
  store ptr %1, ptr %drv, align 8
  %coroutine = getelementptr inbounds %struct.CoroutineIOCompletion, ptr %co, i32 0, i32 0
  %call = call ptr @qemu_coroutine_self()
  store ptr %call, ptr %coroutine, align 8
  %ret = getelementptr inbounds %struct.CoroutineIOCompletion, ptr %co, i32 0, i32 1
  store i32 0, ptr %ret, align 8
  br label %do.body

do.body:                                          ; preds = %entry
  br label %do.end

do.end:                                           ; preds = %do.body
  %2 = load ptr, ptr %bs.addr, align 8
  call void @bdrv_inc_in_flight(ptr noundef %2)
  %3 = load ptr, ptr %drv, align 8
  %tobool = icmp ne ptr %3, null
  br i1 %tobool, label %lor.lhs.false, label %if.then

lor.lhs.false:                                    ; preds = %do.end
  %4 = load ptr, ptr %drv, align 8
  %bdrv_co_zone_report = getelementptr inbounds %struct.BlockDriver, ptr %4, i32 0, i32 98
  %5 = call ptr @llvm.ptr.annotation.p0.p0(ptr %bdrv_co_zone_report, ptr @.str.4, ptr @.str.5, i32 744, ptr null)
  %6 = load ptr, ptr %5, align 8
  %tobool2 = icmp ne ptr %6, null
  br i1 %tobool2, label %lor.lhs.false3, label %if.then

lor.lhs.false3:                                   ; preds = %lor.lhs.false
  %7 = load ptr, ptr %bs.addr, align 8
  %bl = getelementptr inbounds %struct.BlockDriverState, ptr %7, i32 0, i32 17
  %zoned = getelementptr inbounds %struct.BlockLimits, ptr %bl, i32 0, i32 13
  %8 = load i32, ptr %zoned, align 8
  %cmp = icmp eq i32 %8, 0
  br i1 %cmp, label %if.then, label %if.end

if.then:                                          ; preds = %lor.lhs.false3, %lor.lhs.false, %do.end
  %ret4 = getelementptr inbounds %struct.CoroutineIOCompletion, ptr %co, i32 0, i32 1
  store i32 -95, ptr %ret4, align 8
  br label %out

if.end:                                           ; preds = %lor.lhs.false3
  %9 = load ptr, ptr %drv, align 8
  %bdrv_co_zone_report5 = getelementptr inbounds %struct.BlockDriver, ptr %9, i32 0, i32 98
  %10 = call ptr @llvm.ptr.annotation.p0.p0(ptr %bdrv_co_zone_report5, ptr @.str.4, ptr @.str.5, i32 744, ptr null)
  %11 = load ptr, ptr %10, align 8
  %12 = load ptr, ptr %bs.addr, align 8
  %13 = load i64, ptr %offset.addr, align 8
  %14 = load ptr, ptr %nr_zones.addr, align 8
  %15 = load ptr, ptr %zones.addr, align 8
  %call6 = call i32 %11(ptr noundef %12, i64 noundef %13, ptr noundef %14, ptr noundef %15)
  %ret7 = getelementptr inbounds %struct.CoroutineIOCompletion, ptr %co, i32 0, i32 1
  store i32 %call6, ptr %ret7, align 8
  br label %out

out:                                              ; preds = %if.end, %if.then
  %16 = load ptr, ptr %bs.addr, align 8
  call void @bdrv_dec_in_flight(ptr noundef %16)
  %ret8 = getelementptr inbounds %struct.CoroutineIOCompletion, ptr %co, i32 0, i32 1
  %17 = load i32, ptr %ret8, align 8
  ret i32 %17
}