; Function Attrs: nounwind sspstrong uwtable
define dso_local i32 @bdrv_co_zone_report(ptr noundef %bs, i64 noundef %offset, ptr noundef %nr_zones, ptr noundef %zones) #0 {
entry:
  %drv1 = getelementptr inbounds nuw i8, ptr %bs, i64 16
  %0 = load ptr, ptr %drv1, align 8
  %call = tail call ptr @qemu_coroutine_self() #15
  %in_flight.i = getelementptr inbounds nuw i8, ptr %bs, i64 16972
  %1 = atomicrmw add ptr %in_flight.i, i32 1 seq_cst, align 4
  %tobool.not = icmp eq ptr %0, null
  br i1 %tobool.not, label %out, label %lor.lhs.false

lor.lhs.false:                                    ; preds = %entry
  %bdrv_co_zone_report = getelementptr inbounds nuw i8, ptr %0, i64 752
  %2 = tail call ptr @llvm.ptr.annotation.p0.p0(ptr nonnull %bdrv_co_zone_report, ptr nonnull @.str.4, ptr nonnull @.str.5, i32 744, ptr null)
  %3 = load ptr, ptr %2, align 8
  %tobool2.not = icmp eq ptr %3, null
  br i1 %tobool2.not, label %out, label %lor.lhs.false3

lor.lhs.false3:                                   ; preds = %lor.lhs.false
  %zoned = getelementptr inbounds nuw i8, ptr %bs, i64 16552
  %4 = load i32, ptr %zoned, align 8
  %cmp = icmp eq i32 %4, 0
  br i1 %cmp, label %out, label %if.end

if.end:                                           ; preds = %lor.lhs.false3
  %5 = tail call ptr @llvm.ptr.annotation.p0.p0(ptr nonnull %bdrv_co_zone_report, ptr nonnull @.str.4, ptr nonnull @.str.5, i32 744, ptr null)
  %6 = load ptr, ptr %5, align 8
  %call6 = tail call i32 %6(ptr noundef nonnull %bs, i64 noundef %offset, ptr noundef %nr_zones, ptr noundef %zones) #15
  br label %out

out:                                              ; preds = %entry, %lor.lhs.false, %lor.lhs.false3, %if.end
  %co.sroa.1.0 = phi i32 [ %call6, %if.end ], [ -95, %lor.lhs.false3 ], [ -95, %lor.lhs.false ], [ -95, %entry ]
  %7 = atomicrmw sub ptr %in_flight.i, i32 1 seq_cst, align 4
  tail call void @aio_wait_kick() #15
  ret i32 %co.sroa.1.0
}